; Function Attrs: nounwind sspstrong uwtable
define dso_local zeroext i1 @visit_type_BlkdebugSetStateOptions_members(ptr noundef %v, ptr noundef %obj, ptr noundef %errp) local_unnamed_addr #0 {
entry:
  %value.i = alloca i32, align 4
  call void @llvm.lifetime.start.p0(i64 4, ptr nonnull %value.i)
  %0 = load i32, ptr %obj, align 4
  store i32 %0, ptr %value.i, align 4
  %call.i = call zeroext i1 @visit_type_enum(ptr noundef %v, ptr noundef nonnull @.str.312, ptr noundef nonnull %value.i, ptr noundef nonnull @BlkdebugEvent_lookup, ptr noundef %errp) #5
  %1 = load i32, ptr %value.i, align 4
  store i32 %1, ptr %obj, align 4
  call void @llvm.lifetime.end.p0(i64 4, ptr nonnull %value.i)
  br i1 %call.i, label %if.end, label %return

if.end:                                           ; preds = %entry
  %has_state = getelementptr inbounds nuw i8, ptr %obj, i64 4
  %call1 = call zeroext i1 @visit_optional(ptr noundef %v, ptr noundef nonnull @.str.313, ptr noundef nonnull %has_state) #5
  br i1 %call1, label %if.then2, label %if.end6

if.then2:                                         ; preds = %if.end
  %state = getelementptr inbounds nuw i8, ptr %obj, i64 8
  %call3 = call zeroext i1 @visit_type_int(ptr noundef %v, ptr noundef nonnull @.str.313, ptr noundef nonnull %state, ptr noundef %errp) #5
  br i1 %call3, label %if.end6, label %return

if.end6:                                          ; preds = %if.then2, %if.end
  %new_state = getelementptr inbounds nuw i8, ptr %obj, i64 16
  %call7 = call zeroext i1 @visit_type_int(ptr noundef %v, ptr noundef nonnull @.str.319, ptr noundef nonnull %new_state, ptr noundef %errp) #5
  br label %return

return:                                           ; preds = %if.end6, %if.then2, %entry
  %retval.0 = phi i1 [ false, %entry ], [ false, %if.then2 ], [ %call7, %if.end6 ]
  ret i1 %retval.0
}